target datalayout = "e-m:e-p270:32:32-p271:32:32-p272:64:64-i64:64-i128:128-f80:128-n8:16:32:64-S128"
target triple = "x86_64-pc-linux-gnu"

%"class.Minisat::lbool" = type { i8 }
%"struct.Minisat::Lit" = type { i32 }
%"struct.Minisat::Solver::WatcherDeleted" = type { ptr }
%"struct.Minisat::Solver::VarOrderLt" = type { ptr }
%"class.Minisat::Solver" = type <{ ptr, %"class.Minisat::vec", %"class.Minisat::LSet", i32, [4 x i8], double, double, double, double, i8, [3 x i8], i32, i32, i8, i8, [2 x i8], double, i32, i32, double, double, double, i32, [4 x i8], double, i64, i64, i64, i64, i64, i64, i64, i64, i64, i64, i64, i64, i64, %"class.Minisat::vec.2", %"class.Minisat::vec.2", %"class.Minisat::vec.1", %"class.Minisat::vec.3", %"class.Minisat::vec.1", %"class.Minisat::VMap", %"class.Minisat::VMap.7", %"class.Minisat::VMap.11", %"class.Minisat::VMap.7", %"class.Minisat::VMap.11", %"class.Minisat::VMap.15", %"class.Minisat::OccLists", %"class.Minisat::Heap", i8, [7 x i8], double, double, i32, i32, i64, double, i8, [3 x i8], i32, %"class.Minisat::ClauseAllocator", %"class.Minisat::vec.3", %"class.Minisat::vec.3", %"class.Minisat::VMap.11", %"class.Minisat::vec.25", %"class.Minisat::vec.1", %"class.Minisat::vec.1", double, double, i32, [4 x i8], i64, i64, i8, [7 x i8] }>
%"class.Minisat::vec" = type { ptr, i32, i32 }
%"class.Minisat::LSet" = type { %"class.Minisat::IntSet" }
%"class.Minisat::IntSet" = type { %"class.Minisat::IntMap", %"class.Minisat::vec.1" }
%"class.Minisat::IntMap" = type <{ %"class.Minisat::vec.0", %"struct.Minisat::MkIndexLit", [7 x i8] }>
%"class.Minisat::vec.0" = type { ptr, i32, i32 }
%"struct.Minisat::MkIndexLit" = type { i8 }
%"class.Minisat::vec.2" = type { ptr, i32, i32 }
%"class.Minisat::VMap" = type { %"class.Minisat::IntMap.base.6", [7 x i8] }
%"class.Minisat::IntMap.base.6" = type <{ %"class.Minisat::vec.5", %"struct.Minisat::MkIndexDefault" }>
%"class.Minisat::vec.5" = type { ptr, i32, i32 }
%"struct.Minisat::MkIndexDefault" = type { i8 }
%"class.Minisat::VMap.7" = type { %"class.Minisat::IntMap.base.9", [7 x i8] }
%"class.Minisat::IntMap.base.9" = type <{ %"class.Minisat::vec", %"struct.Minisat::MkIndexDefault" }>
%"class.Minisat::VMap.15" = type { %"class.Minisat::IntMap.base.18", [7 x i8] }
%"class.Minisat::IntMap.base.18" = type <{ %"class.Minisat::vec.17", %"struct.Minisat::MkIndexDefault" }>
%"class.Minisat::vec.17" = type { ptr, i32, i32 }
%"class.Minisat::OccLists" = type { %"class.Minisat::IntMap.20", %"class.Minisat::IntMap", %"class.Minisat::vec.1", %"struct.Minisat::Solver::WatcherDeleted" }
%"class.Minisat::IntMap.20" = type <{ %"class.Minisat::vec.21", %"struct.Minisat::MkIndexLit", [7 x i8] }>
%"class.Minisat::vec.21" = type { ptr, i32, i32 }
%"class.Minisat::Heap" = type { %"class.Minisat::vec.3", %"class.Minisat::IntMap.23", %"struct.Minisat::Solver::VarOrderLt" }
%"class.Minisat::IntMap.23" = type <{ %"class.Minisat::vec.3", %"struct.Minisat::MkIndexDefault", [7 x i8] }>
%"class.Minisat::ClauseAllocator" = type { %"class.Minisat::RegionAllocator", i8, [7 x i8] }
%"class.Minisat::RegionAllocator" = type <{ ptr, i32, i32, i32, [4 x i8] }>
%"class.Minisat::vec.3" = type { ptr, i32, i32 }
%"class.Minisat::VMap.11" = type { %"class.Minisat::IntMap.base.13", [7 x i8] }
%"class.Minisat::IntMap.base.13" = type <{ %"class.Minisat::vec.0", %"struct.Minisat::MkIndexDefault" }>
%"class.Minisat::vec.25" = type { ptr, i32, i32 }
%"class.Minisat::vec.1" = type { ptr, i32, i32 }
%"class.Minisat::Clause" = type { %struct.anon, [0 x %union.anon] }
%struct.anon = type { i32 }
%union.anon = type { %"struct.Minisat::Lit" }
%"class.Minisat::IntMap.8" = type <{ %"class.Minisat::vec", %"struct.Minisat::MkIndexDefault", [7 x i8] }>

@_ZN7MinisatL6l_TrueE = internal global %"class.Minisat::lbool" zeroinitializer, align 1

; Function Attrs: mustprogress nounwind uwtable
define linkonce_odr void @_ZN7Minisat5lboolC2Eh(ptr noundef nonnull align 1 dereferenceable(1) %0, i8 noundef zeroext %1) unnamed_addr #1 comdat align 2 {
  %3 = alloca ptr, align 8
  %4 = alloca i8, align 1
  store ptr %0, ptr %3, align 8
  store i8 %1, ptr %4, align 1
  %5 = load ptr, ptr %3, align 8
  %6 = getelementptr inbounds %"class.Minisat::lbool", ptr %5, i32 0, i32 0
  %7 = load i8, ptr %4, align 1
  store i8 %7, ptr %6, align 1
  ret void
}

; Function Attrs: mustprogress nounwind uwtable
define linkonce_odr noundef nonnull align 1 dereferenceable(1) ptr @_ZNK7Minisat3vecINS_5lboolEiEixEi(ptr noundef nonnull align 8 dereferenceable(16) %0, i32 noundef %1) #1 comdat align 2 {
  %3 = alloca ptr, align 8
  %4 = alloca i32, align 4
  store ptr %0, ptr %3, align 8
  store i32 %1, ptr %4, align 4
  %5 = load ptr, ptr %3, align 8
  %6 = getelementptr inbounds %"class.Minisat::vec", ptr %5, i32 0, i32 0
  %7 = load ptr, ptr %6, align 8
  %8 = load i32, ptr %4, align 4
  %9 = sext i32 %8 to i64
  %10 = getelementptr inbounds %"class.Minisat::lbool", ptr %7, i64 %9
  ret ptr %10
}

; Function Attrs: mustprogress nounwind uwtable
define linkonce_odr noundef i32 @_ZNK7Minisat14MkIndexDefaultIiEclEi(ptr noundef nonnull align 1 dereferenceable(1) %0, i32 noundef %1) #1 comdat align 2 {
  %3 = alloca ptr, align 8
  %4 = alloca i32, align 4
  store ptr %0, ptr %3, align 8
  store i32 %1, ptr %4, align 4
  %5 = load i32, ptr %4, align 4
  ret i32 %5
}

; Function Attrs: mustprogress uwtable
define linkonce_odr i8 @_ZNK7Minisat5lbooleoEb(ptr noundef nonnull align 1 dereferenceable(1) %0, i1 noundef zeroext %1) #2 comdat align 2 {
  %3 = alloca %"class.Minisat::lbool", align 1
  %4 = alloca ptr, align 8
  %5 = alloca i8, align 1
  store ptr %0, ptr %4, align 8
  %6 = zext i1 %1 to i8
  store i8 %6, ptr %5, align 1
  %7 = load ptr, ptr %4, align 8
  %8 = getelementptr inbounds %"class.Minisat::lbool", ptr %7, i32 0, i32 0
  %9 = load i8, ptr %8, align 1
  %10 = zext i8 %9 to i32
  %11 = load i8, ptr %5, align 1
  %12 = trunc i8 %11 to i1
  %13 = zext i1 %12 to i8
  %14 = zext i8 %13 to i32
  %15 = xor i32 %10, %14
  %16 = trunc i32 %15 to i8
  call void @_ZN7Minisat5lboolC2Eh(ptr noundef nonnull align 1 dereferenceable(1) %3, i8 noundef zeroext %16)
  %17 = getelementptr inbounds %"class.Minisat::lbool", ptr %3, i32 0, i32 0
  %18 = load i8, ptr %17, align 1
  ret i8 %18
}

; Function Attrs: mustprogress nounwind uwtable
define linkonce_odr noundef zeroext i1 @_ZN7Minisat4signENS_3LitE(i32 %0) #1 comdat {
  %2 = alloca %"struct.Minisat::Lit", align 4
  %3 = getelementptr inbounds %"struct.Minisat::Lit", ptr %2, i32 0, i32 0
  store i32 %0, ptr %3, align 4
  %4 = getelementptr inbounds %"struct.Minisat::Lit", ptr %2, i32 0, i32 0
  %5 = load i32, ptr %4, align 4
  %6 = and i32 %5, 1
  %7 = icmp ne i32 %6, 0
  ret i1 %7
}

; Function Attrs: mustprogress uwtable
define linkonce_odr noundef nonnull align 1 dereferenceable(1) ptr @_ZNK7Minisat6IntMapIiNS_5lboolENS_14MkIndexDefaultIiEEEixEi(ptr noundef nonnull align 8 dereferenceable(17) %0, i32 noundef %1) #2 comdat align 2 {
  %3 = alloca ptr, align 8
  %4 = alloca i32, align 4
  store ptr %0, ptr %3, align 8
  store i32 %1, ptr %4, align 4
  %5 = load ptr, ptr %3, align 8
  %6 = getelementptr inbounds %"class.Minisat::IntMap.8", ptr %5, i32 0, i32 0
  %7 = getelementptr inbounds %"class.Minisat::IntMap.8", ptr %5, i32 0, i32 1
  %8 = load i32, ptr %4, align 4
  %9 = call noundef i32 @_ZNK7Minisat14MkIndexDefaultIiEclEi(ptr noundef nonnull align 1 dereferenceable(1) %7, i32 noundef %8)
  %10 = call noundef nonnull align 1 dereferenceable(1) ptr @_ZNK7Minisat3vecINS_5lboolEiEixEi(ptr noundef nonnull align 8 dereferenceable(16) %6, i32 noundef %9)
  ret ptr %10
}

; Function Attrs: mustprogress nounwind uwtable
define linkonce_odr noundef i32 @_ZN7Minisat3varENS_3LitE(i32 %0) #1 comdat {
  %2 = alloca %"struct.Minisat::Lit", align 4
  %3 = getelementptr inbounds %"struct.Minisat::Lit", ptr %2, i32 0, i32 0
  store i32 %0, ptr %3, align 4
  %4 = getelementptr inbounds %"struct.Minisat::Lit", ptr %2, i32 0, i32 0
  %5 = load i32, ptr %4, align 4
  %6 = ashr i32 %5, 1
  ret i32 %6
}

; Function Attrs: mustprogress nounwind uwtable
define linkonce_odr noundef zeroext i1 @_ZNK7Minisat5lbooleqES0_(ptr noundef nonnull align 1 dereferenceable(1) %0, i8 %1) #1 comdat align 2 {
  %3 = alloca %"class.Minisat::lbool", align 1
  %4 = alloca ptr, align 8
  %5 = getelementptr inbounds %"class.Minisat::lbool", ptr %3, i32 0, i32 0
  store i8 %1, ptr %5, align 1
  store ptr %0, ptr %4, align 8
  %6 = load ptr, ptr %4, align 8
  %7 = getelementptr inbounds %"class.Minisat::lbool", ptr %3, i32 0, i32 0
  %8 = load i8, ptr %7, align 1
  %9 = zext i8 %8 to i32
  %10 = and i32 %9, 2
  %11 = getelementptr inbounds %"class.Minisat::lbool", ptr %6, i32 0, i32 0
  %12 = load i8, ptr %11, align 1
  %13 = zext i8 %12 to i32
  %14 = and i32 %13, 2
  %15 = and i32 %10, %14
  %16 = getelementptr inbounds %"class.Minisat::lbool", ptr %3, i32 0, i32 0
  %17 = load i8, ptr %16, align 1
  %18 = zext i8 %17 to i32
  %19 = and i32 %18, 2
  %20 = icmp ne i32 %19, 0
  %21 = xor i1 %20, true
  %22 = zext i1 %21 to i32
  %23 = getelementptr inbounds %"class.Minisat::lbool", ptr %6, i32 0, i32 0
  %24 = load i8, ptr %23, align 1
  %25 = zext i8 %24 to i32
  %26 = getelementptr inbounds %"class.Minisat::lbool", ptr %3, i32 0, i32 0
  %27 = load i8, ptr %26, align 1
  %28 = zext i8 %27 to i32
  %29 = icmp eq i32 %25, %28
  %30 = zext i1 %29 to i32
  %31 = and i32 %22, %30
  %32 = or i32 %15, %31
  %33 = icmp ne i32 %32, 0
  ret i1 %33
}

; Function Attrs: mustprogress uwtable
define linkonce_odr i8 @_ZNK7Minisat6Solver5valueENS_3LitE(ptr noundef nonnull align 8 dereferenceable(857) %0, i32 %1) #2 comdat align 2 {
  %3 = alloca %"class.Minisat::lbool", align 1
  %4 = alloca %"struct.Minisat::Lit", align 4
  %5 = alloca ptr, align 8
  %6 = alloca %"struct.Minisat::Lit", align 4
  %7 = alloca %"struct.Minisat::Lit", align 4
  %8 = getelementptr inbounds %"struct.Minisat::Lit", ptr %4, i32 0, i32 0
  store i32 %1, ptr %8, align 4
  store ptr %0, ptr %5, align 8
  %9 = load ptr, ptr %5, align 8
  %10 = getelementptr inbounds %"class.Minisat::Solver", ptr %9, i32 0, i32 44
  call void @llvm.memcpy.p0.p0.i64(ptr align 4 %6, ptr align 4 %4, i64 4, i1 false)
  %11 = getelementptr inbounds %"struct.Minisat::Lit", ptr %6, i32 0, i32 0
  %12 = load i32, ptr %11, align 4
  %13 = call noundef i32 @_ZN7Minisat3varENS_3LitE(i32 %12)
  %14 = call noundef nonnull align 1 dereferenceable(1) ptr @_ZNK7Minisat6IntMapIiNS_5lboolENS_14MkIndexDefaultIiEEEixEi(ptr noundef nonnull align 8 dereferenceable(17) %10, i32 noundef %13)
  call void @llvm.memcpy.p0.p0.i64(ptr align 4 %7, ptr align 4 %4, i64 4, i1 false)
  %15 = getelementptr inbounds %"struct.Minisat::Lit", ptr %7, i32 0, i32 0
  %16 = load i32, ptr %15, align 4
  %17 = call noundef zeroext i1 @_ZN7Minisat4signENS_3LitE(i32 %16)
  %18 = call i8 @_ZNK7Minisat5lbooleoEb(ptr noundef nonnull align 1 dereferenceable(1) %14, i1 noundef zeroext %17)
  %19 = getelementptr inbounds %"class.Minisat::lbool", ptr %3, i32 0, i32 0
  store i8 %18, ptr %19, align 1
  %20 = getelementptr inbounds %"class.Minisat::lbool", ptr %3, i32 0, i32 0
  %21 = load i8, ptr %20, align 1
  ret i8 %21
}

; Function Attrs: mustprogress nounwind uwtable
define linkonce_odr i32 @_ZNK7Minisat6ClauseixEi(ptr noundef nonnull align 4 dereferenceable(4) %0, i32 noundef %1) #1 comdat align 2 {
  %3 = alloca %"struct.Minisat::Lit", align 4
  %4 = alloca ptr, align 8
  %5 = alloca i32, align 4
  store ptr %0, ptr %4, align 8
  store i32 %1, ptr %5, align 4
  %6 = load ptr, ptr %4, align 8
  %7 = getelementptr inbounds %"class.Minisat::Clause", ptr %6, i32 0, i32 1
  %8 = load i32, ptr %5, align 4
  %9 = sext i32 %8 to i64
  %10 = getelementptr inbounds [0 x %union.anon], ptr %7, i64 0, i64 %9
  call void @llvm.memcpy.p0.p0.i64(ptr align 4 %3, ptr align 4 %10, i64 4, i1 false)
  %11 = getelementptr inbounds %"struct.Minisat::Lit", ptr %3, i32 0, i32 0
  %12 = load i32, ptr %11, align 4
  ret i32 %12
}

; Function Attrs: mustprogress nounwind uwtable
define linkonce_odr noundef i32 @_ZNK7Minisat6Clause4sizeEv(ptr noundef nonnull align 4 dereferenceable(4) %0) #1 comdat align 2 {
  %2 = alloca ptr, align 8
  store ptr %0, ptr %2, align 8
  %3 = load ptr, ptr %2, align 8
  %4 = getelementptr inbounds %"class.Minisat::Clause", ptr %3, i32 0, i32 0
  %5 = load i32, ptr %4, align 4
  %6 = lshr i32 %5, 5
  ret i32 %6
}

; Function Attrs: mustprogress uwtable
define noundef zeroext i1 @_ZNK7Minisat6Solver9satisfiedERKNS_6ClauseE(ptr noundef nonnull align 8 dereferenceable(857) %0, ptr noundef nonnull align 4 dereferenceable(4) %1) #2 align 2 {
  %3 = alloca i1, align 1
  %4 = alloca ptr, align 8
  %5 = alloca ptr, align 8
  %6 = alloca i32, align 4
  %7 = alloca %"class.Minisat::lbool", align 1
  %8 = alloca %"struct.Minisat::Lit", align 4
  %9 = alloca %"class.Minisat::lbool", align 1
  store ptr %0, ptr %4, align 8
  store ptr %1, ptr %5, align 8
  %10 = load ptr, ptr %4, align 8
  store i32 0, ptr %6, align 4
  br label %11

11:                                               ; preds = %30, %2
  %12 = load i32, ptr %6, align 4
  %13 = load ptr, ptr %5, align 8
  %14 = call noundef i32 @_ZNK7Minisat6Clause4sizeEv(ptr noundef nonnull align 4 dereferenceable(4) %13)
  %15 = icmp slt i32 %12, %14
  br i1 %15, label %16, label %33

16:                                               ; preds = %11
  %17 = load ptr, ptr %5, align 8
  %18 = load i32, ptr %6, align 4
  %19 = call i32 @_ZNK7Minisat6ClauseixEi(ptr noundef nonnull align 4 dereferenceable(4) %17, i32 noundef %18)
  %20 = getelementptr inbounds %"struct.Minisat::Lit", ptr %8, i32 0, i32 0
  store i32 %19, ptr %20, align 4
  %21 = getelementptr inbounds %"struct.Minisat::Lit", ptr %8, i32 0, i32 0
  %22 = load i32, ptr %21, align 4
  %23 = call i8 @_ZNK7Minisat6Solver5valueENS_3LitE(ptr noundef nonnull align 8 dereferenceable(857) %10, i32 %22)
  %24 = getelementptr inbounds %"class.Minisat::lbool", ptr %7, i32 0, i32 0
  store i8 %23, ptr %24, align 1
  call void @llvm.memcpy.p0.p0.i64(ptr align 1 %9, ptr align 1 @_ZN7MinisatL6l_TrueE, i64 1, i1 false)
  %25 = getelementptr inbounds %"class.Minisat::lbool", ptr %9, i32 0, i32 0
  %26 = load i8, ptr %25, align 1
  %27 = call noundef zeroext i1 @_ZNK7Minisat5lbooleqES0_(ptr noundef nonnull align 1 dereferenceable(1) %7, i8 %26)
  br i1 %27, label %28, label %29

28:                                               ; preds = %16
  store i1 true, ptr %3, align 1
  br label %34

29:                                               ; preds = %16
  br label %30

30:                                               ; preds = %29
  %31 = load i32, ptr %6, align 4
  %32 = add nsw i32 %31, 1
  store i32 %32, ptr %6, align 4
  br label %11, !llvm.loop !15

33:                                               ; preds = %11
  store i1 false, ptr %3, align 1
  br label %34

34:                                               ; preds = %33, %28
  %35 = load i1, ptr %3, align 1
  ret i1 %35
}