; Function Attrs: mustprogress nofree norecurse nosync nounwind willreturn memory(read, inaccessiblemem: none) uwtable
define noundef zeroext i1 @_ZNK7Minisat6Solver9satisfiedERKNS_6ClauseE(ptr nocapture noundef nonnull readonly align 8 dereferenceable(857) %0, ptr nocapture noundef nonnull readonly align 4 dereferenceable(4) %1) local_unnamed_addr #5 align 2 {
  %3 = getelementptr inbounds i8, ptr %1, i64 4
  %4 = load i32, ptr %1, align 4
  %5 = icmp ugt i32 %4, 31
  br i1 %5, label %.lr.ph, label %._crit_edge

.lr.ph:                                           ; preds = %2
  %6 = lshr i32 %4, 5
  %7 = getelementptr inbounds i8, ptr %0, i64 384
  %8 = load ptr, ptr %7, align 8
  %.sroa.0.0.copyload = load i8, ptr @_ZN7MinisatL6l_TrueE, align 1
  %9 = lshr i8 %.sroa.0.0.copyload, 1
  %10 = and i8 %9, 1
  %11 = xor i8 %10, 1
  %12 = zext nneg i32 %6 to i64
  %.sroa.0.0.copyload.i11 = load i32, ptr %3, align 4
  %13 = ashr i32 %.sroa.0.0.copyload.i11, 1
  %14 = sext i32 %13 to i64
  %15 = getelementptr inbounds %"class.Minisat::lbool", ptr %8, i64 %14
  %16 = load i8, ptr %15, align 1
  %17 = trunc i32 %.sroa.0.0.copyload.i11 to i8
  %18 = and i8 %17, 1
  %19 = xor i8 %16, %18
  %20 = and i8 %16, 2
  %21 = and i8 %20, %.sroa.0.0.copyload
  %22 = icmp eq i8 %19, %.sroa.0.0.copyload
  %23 = select i1 %22, i8 %11, i8 0
  %24 = or disjoint i8 %23, %21
  %.not12 = icmp eq i8 %24, 0
  br i1 %.not12, label %.lr.ph14, label %._crit_edge

.lr.ph14:                                         ; preds = %.lr.ph, %25
  %indvars.iv13 = phi i64 [ %indvars.iv.next, %25 ], [ 0, %.lr.ph ]
  %indvars.iv.next = add nuw nsw i64 %indvars.iv13, 1
  %exitcond.not = icmp eq i64 %indvars.iv.next, %12
  br i1 %exitcond.not, label %._crit_edge.loopexit, label %25, !llvm.loop !18

25:                                               ; preds = %.lr.ph14
  %26 = getelementptr inbounds [0 x %union.anon], ptr %3, i64 0, i64 %indvars.iv.next
  %.sroa.0.0.copyload.i = load i32, ptr %26, align 4
  %27 = ashr i32 %.sroa.0.0.copyload.i, 1
  %28 = sext i32 %27 to i64
  %29 = getelementptr inbounds %"class.Minisat::lbool", ptr %8, i64 %28
  %30 = load i8, ptr %29, align 1
  %31 = trunc i32 %.sroa.0.0.copyload.i to i8
  %32 = and i8 %31, 1
  %33 = xor i8 %30, %32
  %34 = and i8 %30, 2
  %35 = and i8 %34, %.sroa.0.0.copyload
  %36 = icmp eq i8 %33, %.sroa.0.0.copyload
  %37 = select i1 %36, i8 %11, i8 0
  %38 = or disjoint i8 %37, %35
  %.not = icmp eq i8 %38, 0
  br i1 %.not, label %.lr.ph14, label %._crit_edge.loopexit, !llvm.loop !18

._crit_edge.loopexit:                             ; preds = %25, %.lr.ph14
  %39 = icmp ult i64 %indvars.iv.next, %12
  br label %._crit_edge

._crit_edge:                                      ; preds = %._crit_edge.loopexit, %.lr.ph, %2
  %.lcssa = phi i1 [ false, %2 ], [ true, %.lr.ph ], [ %39, %._crit_edge.loopexit ]
  ret i1 %.lcssa
}